target datalayout = "e-m:e-p270:32:32-p271:32:32-p272:64:64-i64:64-i128:128-f80:128-n8:16:32:64-S128"
target triple = "x86_64-pc-linux-gnu"

%struct.yyguts_t = type { ptr, ptr, ptr, i64, i64, ptr, i8, i32, i32, ptr, i32, i32, i32, i32, i32, ptr, i32, ptr, i32, i32, ptr, i32, i32, ptr, ptr }
%struct.yy_buffer_state = type { ptr, ptr, ptr, i32, i32, i32, i32, i32, i32, i32, i32, i32 }

; Function Attrs: mustprogress nounwind uwtable
define void @_Z6yyfreePvS_(ptr noundef %0, ptr noundef %1) #2 {
  %3 = alloca ptr, align 8
  %4 = alloca ptr, align 8
  %5 = alloca ptr, align 8
  store ptr %0, ptr %3, align 8
  store ptr %1, ptr %4, align 8
  %6 = load ptr, ptr %4, align 8
  store ptr %6, ptr %5, align 8
  %7 = load ptr, ptr %3, align 8
  call void @free(ptr noundef %7) #1
  ret void
}

; Function Attrs: mustprogress nounwind uwtable
define internal void @_ZL20yy_load_buffer_statePv(ptr noundef %0) #2 {
  %2 = alloca ptr, align 8
  %3 = alloca ptr, align 8
  store ptr %0, ptr %2, align 8
  %4 = load ptr, ptr %2, align 8
  store ptr %4, ptr %3, align 8
  %5 = load ptr, ptr %3, align 8
  %6 = getelementptr inbounds %struct.yyguts_t, ptr %5, i32 0, i32 5
  %7 = load ptr, ptr %6, align 8
  %8 = load ptr, ptr %3, align 8
  %9 = getelementptr inbounds %struct.yyguts_t, ptr %8, i32 0, i32 3
  %10 = load i64, ptr %9, align 8
  %11 = getelementptr inbounds ptr, ptr %7, i64 %10
  %12 = load ptr, ptr %11, align 8
  %13 = getelementptr inbounds %struct.yy_buffer_state, ptr %12, i32 0, i32 4
  %14 = load i32, ptr %13, align 4
  %15 = load ptr, ptr %3, align 8
  %16 = getelementptr inbounds %struct.yyguts_t, ptr %15, i32 0, i32 7
  store i32 %14, ptr %16, align 4
  %17 = load ptr, ptr %3, align 8
  %18 = getelementptr inbounds %struct.yyguts_t, ptr %17, i32 0, i32 5
  %19 = load ptr, ptr %18, align 8
  %20 = load ptr, ptr %3, align 8
  %21 = getelementptr inbounds %struct.yyguts_t, ptr %20, i32 0, i32 3
  %22 = load i64, ptr %21, align 8
  %23 = getelementptr inbounds ptr, ptr %19, i64 %22
  %24 = load ptr, ptr %23, align 8
  %25 = getelementptr inbounds %struct.yy_buffer_state, ptr %24, i32 0, i32 2
  %26 = load ptr, ptr %25, align 8
  %27 = load ptr, ptr %3, align 8
  %28 = getelementptr inbounds %struct.yyguts_t, ptr %27, i32 0, i32 9
  store ptr %26, ptr %28, align 8
  %29 = load ptr, ptr %3, align 8
  %30 = getelementptr inbounds %struct.yyguts_t, ptr %29, i32 0, i32 20
  store ptr %26, ptr %30, align 8
  %31 = load ptr, ptr %3, align 8
  %32 = getelementptr inbounds %struct.yyguts_t, ptr %31, i32 0, i32 5
  %33 = load ptr, ptr %32, align 8
  %34 = load ptr, ptr %3, align 8
  %35 = getelementptr inbounds %struct.yyguts_t, ptr %34, i32 0, i32 3
  %36 = load i64, ptr %35, align 8
  %37 = getelementptr inbounds ptr, ptr %33, i64 %36
  %38 = load ptr, ptr %37, align 8
  %39 = getelementptr inbounds %struct.yy_buffer_state, ptr %38, i32 0, i32 0
  %40 = load ptr, ptr %39, align 8
  %41 = load ptr, ptr %3, align 8
  %42 = getelementptr inbounds %struct.yyguts_t, ptr %41, i32 0, i32 1
  store ptr %40, ptr %42, align 8
  %43 = load ptr, ptr %3, align 8
  %44 = getelementptr inbounds %struct.yyguts_t, ptr %43, i32 0, i32 9
  %45 = load ptr, ptr %44, align 8
  %46 = load i8, ptr %45, align 1
  %47 = load ptr, ptr %3, align 8
  %48 = getelementptr inbounds %struct.yyguts_t, ptr %47, i32 0, i32 6
  store i8 %46, ptr %48, align 8
  ret void
}

; Function Attrs: mustprogress uwtable
define void @_Z16yy_delete_bufferP15yy_buffer_statePv(ptr noundef %0, ptr noundef %1) #5 {
  %3 = alloca ptr, align 8
  %4 = alloca ptr, align 8
  %5 = alloca ptr, align 8
  store ptr %0, ptr %3, align 8
  store ptr %1, ptr %4, align 8
  %6 = load ptr, ptr %4, align 8
  store ptr %6, ptr %5, align 8
  %7 = load ptr, ptr %3, align 8
  %8 = icmp ne ptr %7, null
  br i1 %8, label %10, label %9

9:                                                ; preds = %2
  br label %50

10:                                               ; preds = %2
  %11 = load ptr, ptr %3, align 8
  %12 = load ptr, ptr %5, align 8
  %13 = getelementptr inbounds %struct.yyguts_t, ptr %12, i32 0, i32 5
  %14 = load ptr, ptr %13, align 8
  %15 = icmp ne ptr %14, null
  br i1 %15, label %16, label %25

16:                                               ; preds = %10
  %17 = load ptr, ptr %5, align 8
  %18 = getelementptr inbounds %struct.yyguts_t, ptr %17, i32 0, i32 5
  %19 = load ptr, ptr %18, align 8
  %20 = load ptr, ptr %5, align 8
  %21 = getelementptr inbounds %struct.yyguts_t, ptr %20, i32 0, i32 3
  %22 = load i64, ptr %21, align 8
  %23 = getelementptr inbounds ptr, ptr %19, i64 %22
  %24 = load ptr, ptr %23, align 8
  br label %26

25:                                               ; preds = %10
  br label %26

26:                                               ; preds = %25, %16
  %27 = phi ptr [ %24, %16 ], [ null, %25 ]
  %28 = icmp eq ptr %11, %27
  br i1 %28, label %29, label %37

29:                                               ; preds = %26
  %30 = load ptr, ptr %5, align 8
  %31 = getelementptr inbounds %struct.yyguts_t, ptr %30, i32 0, i32 5
  %32 = load ptr, ptr %31, align 8
  %33 = load ptr, ptr %5, align 8
  %34 = getelementptr inbounds %struct.yyguts_t, ptr %33, i32 0, i32 3
  %35 = load i64, ptr %34, align 8
  %36 = getelementptr inbounds ptr, ptr %32, i64 %35
  store ptr null, ptr %36, align 8
  br label %37

37:                                               ; preds = %29, %26
  %38 = load ptr, ptr %3, align 8
  %39 = getelementptr inbounds %struct.yy_buffer_state, ptr %38, i32 0, i32 5
  %40 = load i32, ptr %39, align 8
  %41 = icmp ne i32 %40, 0
  br i1 %41, label %42, label %47

42:                                               ; preds = %37
  %43 = load ptr, ptr %3, align 8
  %44 = getelementptr inbounds %struct.yy_buffer_state, ptr %43, i32 0, i32 1
  %45 = load ptr, ptr %44, align 8
  %46 = load ptr, ptr %4, align 8
  call void @_Z6yyfreePvS_(ptr noundef %45, ptr noundef %46)
  br label %47

47:                                               ; preds = %42, %37
  %48 = load ptr, ptr %3, align 8
  %49 = load ptr, ptr %4, align 8
  call void @_Z6yyfreePvS_(ptr noundef %48, ptr noundef %49)
  br label %50

50:                                               ; preds = %47, %9
  ret void
}

; Function Attrs: mustprogress uwtable
define void @_Z18yypop_buffer_statePv(ptr noundef %0) #5 {
  %2 = alloca ptr, align 8
  %3 = alloca ptr, align 8
  store ptr %0, ptr %2, align 8
  %4 = load ptr, ptr %2, align 8
  store ptr %4, ptr %3, align 8
  %5 = load ptr, ptr %3, align 8
  %6 = getelementptr inbounds %struct.yyguts_t, ptr %5, i32 0, i32 5
  %7 = load ptr, ptr %6, align 8
  %8 = icmp ne ptr %7, null
  br i1 %8, label %9, label %18

9:                                                ; preds = %1
  %10 = load ptr, ptr %3, align 8
  %11 = getelementptr inbounds %struct.yyguts_t, ptr %10, i32 0, i32 5
  %12 = load ptr, ptr %11, align 8
  %13 = load ptr, ptr %3, align 8
  %14 = getelementptr inbounds %struct.yyguts_t, ptr %13, i32 0, i32 3
  %15 = load i64, ptr %14, align 8
  %16 = getelementptr inbounds ptr, ptr %12, i64 %15
  %17 = load ptr, ptr %16, align 8
  br label %19

18:                                               ; preds = %1
  br label %19

19:                                               ; preds = %18, %9
  %20 = phi ptr [ %17, %9 ], [ null, %18 ]
  %21 = icmp ne ptr %20, null
  br i1 %21, label %23, label %22

22:                                               ; preds = %19
  br label %79

23:                                               ; preds = %19
  %24 = load ptr, ptr %3, align 8
  %25 = getelementptr inbounds %struct.yyguts_t, ptr %24, i32 0, i32 5
  %26 = load ptr, ptr %25, align 8
  %27 = icmp ne ptr %26, null
  br i1 %27, label %28, label %37

28:                                               ; preds = %23
  %29 = load ptr, ptr %3, align 8
  %30 = getelementptr inbounds %struct.yyguts_t, ptr %29, i32 0, i32 5
  %31 = load ptr, ptr %30, align 8
  %32 = load ptr, ptr %3, align 8
  %33 = getelementptr inbounds %struct.yyguts_t, ptr %32, i32 0, i32 3
  %34 = load i64, ptr %33, align 8
  %35 = getelementptr inbounds ptr, ptr %31, i64 %34
  %36 = load ptr, ptr %35, align 8
  br label %38

37:                                               ; preds = %23
  br label %38

38:                                               ; preds = %37, %28
  %39 = phi ptr [ %36, %28 ], [ null, %37 ]
  %40 = load ptr, ptr %2, align 8
  call void @_Z16yy_delete_bufferP15yy_buffer_statePv(ptr noundef %39, ptr noundef %40)
  %41 = load ptr, ptr %3, align 8
  %42 = getelementptr inbounds %struct.yyguts_t, ptr %41, i32 0, i32 5
  %43 = load ptr, ptr %42, align 8
  %44 = load ptr, ptr %3, align 8
  %45 = getelementptr inbounds %struct.yyguts_t, ptr %44, i32 0, i32 3
  %46 = load i64, ptr %45, align 8
  %47 = getelementptr inbounds ptr, ptr %43, i64 %46
  store ptr null, ptr %47, align 8
  %48 = load ptr, ptr %3, align 8
  %49 = getelementptr inbounds %struct.yyguts_t, ptr %48, i32 0, i32 3
  %50 = load i64, ptr %49, align 8
  %51 = icmp ugt i64 %50, 0
  br i1 %51, label %52, label %57

52:                                               ; preds = %38
  %53 = load ptr, ptr %3, align 8
  %54 = getelementptr inbounds %struct.yyguts_t, ptr %53, i32 0, i32 3
  %55 = load i64, ptr %54, align 8
  %56 = add i64 %55, -1
  store i64 %56, ptr %54, align 8
  br label %57

57:                                               ; preds = %52, %38
  %58 = load ptr, ptr %3, align 8
  %59 = getelementptr inbounds %struct.yyguts_t, ptr %58, i32 0, i32 5
  %60 = load ptr, ptr %59, align 8
  %61 = icmp ne ptr %60, null
  br i1 %61, label %62, label %71

62:                                               ; preds = %57
  %63 = load ptr, ptr %3, align 8
  %64 = getelementptr inbounds %struct.yyguts_t, ptr %63, i32 0, i32 5
  %65 = load ptr, ptr %64, align 8
  %66 = load ptr, ptr %3, align 8
  %67 = getelementptr inbounds %struct.yyguts_t, ptr %66, i32 0, i32 3
  %68 = load i64, ptr %67, align 8
  %69 = getelementptr inbounds ptr, ptr %65, i64 %68
  %70 = load ptr, ptr %69, align 8
  br label %72

71:                                               ; preds = %57
  br label %72

72:                                               ; preds = %71, %62
  %73 = phi ptr [ %70, %62 ], [ null, %71 ]
  %74 = icmp ne ptr %73, null
  br i1 %74, label %75, label %79

75:                                               ; preds = %72
  %76 = load ptr, ptr %2, align 8
  call void @_ZL20yy_load_buffer_statePv(ptr noundef %76)
  %77 = load ptr, ptr %3, align 8
  %78 = getelementptr inbounds %struct.yyguts_t, ptr %77, i32 0, i32 12
  store i32 1, ptr %78, align 8
  br label %79

79:                                               ; preds = %75, %72, %22
  ret void
}