; Function Attrs: mustprogress nounwind willreturn uwtable
define void @_Z18yypop_buffer_statePv(ptr nocapture noundef %0) local_unnamed_addr #17 {
  %2 = getelementptr inbounds i8, ptr %0, i64 40
  %3 = load ptr, ptr %2, align 8
  %.not = icmp eq ptr %3, null
  br i1 %.not, label %.critedge, label %4

4:                                                ; preds = %1
  %5 = getelementptr inbounds i8, ptr %0, i64 24
  %6 = load i64, ptr %5, align 8
  %7 = getelementptr inbounds ptr, ptr %3, i64 %6
  %8 = load ptr, ptr %7, align 8
  %9 = icmp eq ptr %8, null
  br i1 %9, label %.critedge, label %10

10:                                               ; preds = %4
  store ptr null, ptr %7, align 8
  %11 = getelementptr inbounds i8, ptr %8, i64 32
  %12 = load i32, ptr %11, align 8
  %.not15.i = icmp eq i32 %12, 0
  br i1 %.not15.i, label %_Z16yy_delete_bufferP15yy_buffer_statePv.exit, label %13

13:                                               ; preds = %10
  %14 = getelementptr inbounds i8, ptr %8, i64 8
  %15 = load ptr, ptr %14, align 8
  tail call void @free(ptr noundef %15) #43
  br label %_Z16yy_delete_bufferP15yy_buffer_statePv.exit

_Z16yy_delete_bufferP15yy_buffer_statePv.exit:    ; preds = %10, %13
  tail call void @free(ptr noundef nonnull %8) #43
  %16 = load ptr, ptr %2, align 8
  %17 = load i64, ptr %5, align 8
  %18 = getelementptr inbounds ptr, ptr %16, i64 %17
  store ptr null, ptr %18, align 8
  %19 = load i64, ptr %5, align 8
  %.not22 = icmp eq i64 %19, 0
  br i1 %.not22, label %22, label %20

20:                                               ; preds = %_Z16yy_delete_bufferP15yy_buffer_statePv.exit
  %21 = add i64 %19, -1
  store i64 %21, ptr %5, align 8
  br label %22

22:                                               ; preds = %20, %_Z16yy_delete_bufferP15yy_buffer_statePv.exit
  %23 = phi i64 [ %21, %20 ], [ 0, %_Z16yy_delete_bufferP15yy_buffer_statePv.exit ]
  %24 = load ptr, ptr %2, align 8
  %.not23 = icmp eq ptr %24, null
  br i1 %.not23, label %.critedge, label %25

25:                                               ; preds = %22
  %26 = getelementptr inbounds ptr, ptr %24, i64 %23
  %27 = load ptr, ptr %26, align 8
  %28 = icmp eq ptr %27, null
  br i1 %28, label %.critedge, label %29

29:                                               ; preds = %25
  %30 = getelementptr inbounds i8, ptr %27, i64 28
  %31 = load i32, ptr %30, align 4
  %32 = getelementptr inbounds i8, ptr %0, i64 52
  store i32 %31, ptr %32, align 4
  %33 = load ptr, ptr %26, align 8
  %34 = getelementptr inbounds i8, ptr %33, i64 16
  %35 = load ptr, ptr %34, align 8
  %36 = getelementptr inbounds i8, ptr %0, i64 64
  store ptr %35, ptr %36, align 8
  %37 = getelementptr inbounds i8, ptr %0, i64 128
  store ptr %35, ptr %37, align 8
  %38 = load ptr, ptr %26, align 8
  %39 = load ptr, ptr %38, align 8
  %40 = getelementptr inbounds i8, ptr %0, i64 8
  store ptr %39, ptr %40, align 8
  %41 = load i8, ptr %35, align 1
  %42 = getelementptr inbounds i8, ptr %0, i64 48
  store i8 %41, ptr %42, align 8
  %43 = getelementptr inbounds i8, ptr %0, i64 80
  store i32 1, ptr %43, align 8
  br label %.critedge

.critedge:                                        ; preds = %22, %1, %4, %29, %25
  ret void
}